#include <math.h>
#include <stdio.h>
#include <stdlib.h>
#include <string.h>

int main()
{
	int n,i,j,k,str1[100]={0},str2[100]={0},len1,len2;
	char a[100]={0},b[100]={0};
	scanf("%d",&n);
	for(i=0;i<n;i++)
	{
		scanf("%s%s",a,b);
		len1=strlen(a),len2=strlen(b);
		k=0;
		for(j=len1-1;j>=0;j--)
		{
			str1[k++]=a[j]-'0';
		}
		k=0;
		for(j=len2-1;j>=0;j--)
		{
			str2[k++]=b[j]-'0';
		}
		for(j=0;j<len1;j++)
		{
			str1[j]-=str2[j];
			if(str1[j]<0)
			{
				str1[j]+=10;
				str1[j+1]--;
			}
		}
		for(j=len1-1;j>=0;j--)
			printf("%d",str1[j]);
		printf("\n");
		for(j=0;j<100;j++)
		{
			str1[j]=0;
		}
		for(j=0;j<100;j++)
		{
			str2[j]=0;
		}
		for(j=0;j<100;j++)
		{
			a[j]=0;
		}
		for(j=0;j<100;j++)
		{
			b[j]=0;
		}
	}
	return 0;
}