; ModuleID = '32/2408.c'
source_filename = "32/2408.c"
target datalayout = "e-m:e-p270:32:32-p271:32:32-p272:64:64-i64:64-f80:128-n8:16:32:64-S128"
target triple = "x86_64-pc-linux-gnu"

@.str = private unnamed_addr constant [3 x i8] c"%d\00", align 1
@.str.1 = private unnamed_addr constant [5 x i8] c"%s%s\00", align 1
@.str.2 = private unnamed_addr constant [2 x i8] c"\0A\00", align 1

; Function Attrs: noinline nounwind uwtable
define dso_local i32 @main() #0 {
  %1 = alloca i32, align 4
  %2 = alloca i32, align 4
  %3 = alloca i32, align 4
  %4 = alloca i32, align 4
  %5 = alloca i32, align 4
  %6 = alloca [100 x i32], align 16
  %7 = alloca [100 x i32], align 16
  %8 = alloca i32, align 4
  %9 = alloca i32, align 4
  %10 = alloca [100 x i8], align 16
  %11 = alloca [100 x i8], align 16
  store i32 0, i32* %1, align 4
  %12 = bitcast [100 x i32]* %6 to i8*
  call void @llvm.memset.p0i8.i64(i8* align 16 %12, i8 0, i64 400, i1 false)
  %13 = bitcast [100 x i32]* %7 to i8*
  call void @llvm.memset.p0i8.i64(i8* align 16 %13, i8 0, i64 400, i1 false)
  %14 = bitcast [100 x i8]* %10 to i8*
  call void @llvm.memset.p0i8.i64(i8* align 16 %14, i8 0, i64 100, i1 false)
  %15 = bitcast [100 x i8]* %11 to i8*
  call void @llvm.memset.p0i8.i64(i8* align 16 %15, i8 0, i64 100, i1 false)
  %16 = call i32 (i8*, ...) @__isoc99_scanf(i8* getelementptr inbounds ([3 x i8], [3 x i8]* @.str, i64 0, i64 0), i32* %2)
  store i32 0, i32* %3, align 4
  br label %17

17:                                               ; preds = %167, %0
  %18 = load i32, i32* %3, align 4
  %19 = load i32, i32* %2, align 4
  %20 = icmp slt i32 %18, %19
  br i1 %20, label %21, label %170

21:                                               ; preds = %17
  %22 = getelementptr inbounds [100 x i8], [100 x i8]* %10, i64 0, i64 0
  %23 = getelementptr inbounds [100 x i8], [100 x i8]* %11, i64 0, i64 0
  %24 = call i32 (i8*, ...) @__isoc99_scanf(i8* getelementptr inbounds ([5 x i8], [5 x i8]* @.str.1, i64 0, i64 0), i8* %22, i8* %23)
  %25 = getelementptr inbounds [100 x i8], [100 x i8]* %10, i64 0, i64 0
  %26 = call i64 @strlen(i8* %25) #4
  %27 = trunc i64 %26 to i32
  store i32 %27, i32* %8, align 4
  %28 = getelementptr inbounds [100 x i8], [100 x i8]* %11, i64 0, i64 0
  %29 = call i64 @strlen(i8* %28) #4
  %30 = trunc i64 %29 to i32
  store i32 %30, i32* %9, align 4
  store i32 0, i32* %5, align 4
  %31 = load i32, i32* %8, align 4
  %32 = sub nsw i32 %31, 1
  store i32 %32, i32* %4, align 4
  br label %33

33:                                               ; preds = %47, %21
  %34 = load i32, i32* %4, align 4
  %35 = icmp sge i32 %34, 0
  br i1 %35, label %36, label %50

36:                                               ; preds = %33
  %37 = load i32, i32* %4, align 4
  %38 = sext i32 %37 to i64
  %39 = getelementptr inbounds [100 x i8], [100 x i8]* %10, i64 0, i64 %38
  %40 = load i8, i8* %39, align 1
  %41 = sext i8 %40 to i32
  %42 = sub nsw i32 %41, 48
  %43 = load i32, i32* %5, align 4
  %44 = add nsw i32 %43, 1
  store i32 %44, i32* %5, align 4
  %45 = sext i32 %43 to i64
  %46 = getelementptr inbounds [100 x i32], [100 x i32]* %6, i64 0, i64 %45
  store i32 %42, i32* %46, align 4
  br label %47

47:                                               ; preds = %36
  %48 = load i32, i32* %4, align 4
  %49 = add nsw i32 %48, -1
  store i32 %49, i32* %4, align 4
  br label %33

50:                                               ; preds = %33
  store i32 0, i32* %5, align 4
  %51 = load i32, i32* %9, align 4
  %52 = sub nsw i32 %51, 1
  store i32 %52, i32* %4, align 4
  br label %53

53:                                               ; preds = %67, %50
  %54 = load i32, i32* %4, align 4
  %55 = icmp sge i32 %54, 0
  br i1 %55, label %56, label %70

56:                                               ; preds = %53
  %57 = load i32, i32* %4, align 4
  %58 = sext i32 %57 to i64
  %59 = getelementptr inbounds [100 x i8], [100 x i8]* %11, i64 0, i64 %58
  %60 = load i8, i8* %59, align 1
  %61 = sext i8 %60 to i32
  %62 = sub nsw i32 %61, 48
  %63 = load i32, i32* %5, align 4
  %64 = add nsw i32 %63, 1
  store i32 %64, i32* %5, align 4
  %65 = sext i32 %63 to i64
  %66 = getelementptr inbounds [100 x i32], [100 x i32]* %7, i64 0, i64 %65
  store i32 %62, i32* %66, align 4
  br label %67

67:                                               ; preds = %56
  %68 = load i32, i32* %4, align 4
  %69 = add nsw i32 %68, -1
  store i32 %69, i32* %4, align 4
  br label %53

70:                                               ; preds = %53
  store i32 0, i32* %4, align 4
  br label %71

71:                                               ; preds = %103, %70
  %72 = load i32, i32* %4, align 4
  %73 = load i32, i32* %8, align 4
  %74 = icmp slt i32 %72, %73
  br i1 %74, label %75, label %106

75:                                               ; preds = %71
  %76 = load i32, i32* %4, align 4
  %77 = sext i32 %76 to i64
  %78 = getelementptr inbounds [100 x i32], [100 x i32]* %7, i64 0, i64 %77
  %79 = load i32, i32* %78, align 4
  %80 = load i32, i32* %4, align 4
  %81 = sext i32 %80 to i64
  %82 = getelementptr inbounds [100 x i32], [100 x i32]* %6, i64 0, i64 %81
  %83 = load i32, i32* %82, align 4
  %84 = sub nsw i32 %83, %79
  store i32 %84, i32* %82, align 4
  %85 = load i32, i32* %4, align 4
  %86 = sext i32 %85 to i64
  %87 = getelementptr inbounds [100 x i32], [100 x i32]* %6, i64 0, i64 %86
  %88 = load i32, i32* %87, align 4
  %89 = icmp slt i32 %88, 0
  br i1 %89, label %90, label %102

90:                                               ; preds = %75
  %91 = load i32, i32* %4, align 4
  %92 = sext i32 %91 to i64
  %93 = getelementptr inbounds [100 x i32], [100 x i32]* %6, i64 0, i64 %92
  %94 = load i32, i32* %93, align 4
  %95 = add nsw i32 %94, 10
  store i32 %95, i32* %93, align 4
  %96 = load i32, i32* %4, align 4
  %97 = add nsw i32 %96, 1
  %98 = sext i32 %97 to i64
  %99 = getelementptr inbounds [100 x i32], [100 x i32]* %6, i64 0, i64 %98
  %100 = load i32, i32* %99, align 4
  %101 = add nsw i32 %100, -1
  store i32 %101, i32* %99, align 4
  br label %102

102:                                              ; preds = %90, %75
  br label %103

103:                                              ; preds = %102
  %104 = load i32, i32* %4, align 4
  %105 = add nsw i32 %104, 1
  store i32 %105, i32* %4, align 4
  br label %71

106:                                              ; preds = %71
  %107 = load i32, i32* %8, align 4
  %108 = sub nsw i32 %107, 1
  store i32 %108, i32* %4, align 4
  br label %109

109:                                              ; preds = %118, %106
  %110 = load i32, i32* %4, align 4
  %111 = icmp sge i32 %110, 0
  br i1 %111, label %112, label %121

112:                                              ; preds = %109
  %113 = load i32, i32* %4, align 4
  %114 = sext i32 %113 to i64
  %115 = getelementptr inbounds [100 x i32], [100 x i32]* %6, i64 0, i64 %114
  %116 = load i32, i32* %115, align 4
  %117 = call i32 (i8*, ...) @printf(i8* getelementptr inbounds ([3 x i8], [3 x i8]* @.str, i64 0, i64 0), i32 %116)
  br label %118

118:                                              ; preds = %112
  %119 = load i32, i32* %4, align 4
  %120 = add nsw i32 %119, -1
  store i32 %120, i32* %4, align 4
  br label %109

121:                                              ; preds = %109
  %122 = call i32 (i8*, ...) @printf(i8* getelementptr inbounds ([2 x i8], [2 x i8]* @.str.2, i64 0, i64 0))
  store i32 0, i32* %4, align 4
  br label %123

123:                                              ; preds = %130, %121
  %124 = load i32, i32* %4, align 4
  %125 = icmp slt i32 %124, 100
  br i1 %125, label %126, label %133

126:                                              ; preds = %123
  %127 = load i32, i32* %4, align 4
  %128 = sext i32 %127 to i64
  %129 = getelementptr inbounds [100 x i32], [100 x i32]* %6, i64 0, i64 %128
  store i32 0, i32* %129, align 4
  br label %130

130:                                              ; preds = %126
  %131 = load i32, i32* %4, align 4
  %132 = add nsw i32 %131, 1
  store i32 %132, i32* %4, align 4
  br label %123

133:                                              ; preds = %123
  store i32 0, i32* %4, align 4
  br label %134

134:                                              ; preds = %141, %133
  %135 = load i32, i32* %4, align 4
  %136 = icmp slt i32 %135, 100
  br i1 %136, label %137, label %144

137:                                              ; preds = %134
  %138 = load i32, i32* %4, align 4
  %139 = sext i32 %138 to i64
  %140 = getelementptr inbounds [100 x i32], [100 x i32]* %7, i64 0, i64 %139
  store i32 0, i32* %140, align 4
  br label %141

141:                                              ; preds = %137
  %142 = load i32, i32* %4, align 4
  %143 = add nsw i32 %142, 1
  store i32 %143, i32* %4, align 4
  br label %134

144:                                              ; preds = %134
  store i32 0, i32* %4, align 4
  br label %145

145:                                              ; preds = %152, %144
  %146 = load i32, i32* %4, align 4
  %147 = icmp slt i32 %146, 100
  br i1 %147, label %148, label %155

148:                                              ; preds = %145
  %149 = load i32, i32* %4, align 4
  %150 = sext i32 %149 to i64
  %151 = getelementptr inbounds [100 x i8], [100 x i8]* %10, i64 0, i64 %150
  store i8 0, i8* %151, align 1
  br label %152

152:                                              ; preds = %148
  %153 = load i32, i32* %4, align 4
  %154 = add nsw i32 %153, 1
  store i32 %154, i32* %4, align 4
  br label %145

155:                                              ; preds = %145
  store i32 0, i32* %4, align 4
  br label %156

156:                                              ; preds = %163, %155
  %157 = load i32, i32* %4, align 4
  %158 = icmp slt i32 %157, 100
  br i1 %158, label %159, label %166

159:                                              ; preds = %156
  %160 = load i32, i32* %4, align 4
  %161 = sext i32 %160 to i64
  %162 = getelementptr inbounds [100 x i8], [100 x i8]* %11, i64 0, i64 %161
  store i8 0, i8* %162, align 1
  br label %163

163:                                              ; preds = %159
  %164 = load i32, i32* %4, align 4
  %165 = add nsw i32 %164, 1
  store i32 %165, i32* %4, align 4
  br label %156

166:                                              ; preds = %156
  br label %167

167:                                              ; preds = %166
  %168 = load i32, i32* %3, align 4
  %169 = add nsw i32 %168, 1
  store i32 %169, i32* %3, align 4
  br label %17

170:                                              ; preds = %17
  ret i32 0
}

; Function Attrs: argmemonly nounwind willreturn
declare void @llvm.memset.p0i8.i64(i8* nocapture writeonly, i8, i64, i1 immarg) #1

declare dso_local i32 @__isoc99_scanf(i8*, ...) #2

; Function Attrs: nounwind readonly
declare dso_local i64 @strlen(i8*) #3

declare dso_local i32 @printf(i8*, ...) #2


!llvm.module.flags = !{!0}
!llvm.ident = !{!1}

!0 = !{i32 1, !"wchar_size", i32 4}
!1 = !{!"clang version 10.0.0-4ubuntu1 "}
